target datalayout = "e-m:e-p270:32:32-p271:32:32-p272:64:64-i64:64-i128:128-f80:128-n8:16:32:64-S128"
target triple = "x86_64-pc-linux-gnu"

%struct._e_guid_t = type { i32, i16, i16, [8 x i8] }
%struct._dcerpc_info = type { ptr, i32, i64, i8, i8, i8, i32, i32, i32, i32, i32, i32, i32, i32, ptr, ptr, ptr, ptr, %struct.anon }
%struct.anon = type { i8, ptr, ptr, ptr, i8 }
%struct._dcerpc_call_value = type { %struct._e_guid_t, i16, %struct._e_guid_t, i16, i32, %struct.nstime_t, i32, i32, ptr, ptr, ptr, i32 }
%struct.nstime_t = type { i64, i32 }

@__const.netlogon_dissect_CLAIMS_SET_METADATA_BLOB.drep = private unnamed_addr constant [4 x i8] c"\10\00\00\00", align 1
@hf_netlogon_blob = internal global i32 0, align 4

; Function Attrs: null_pointer_is_valid sspstrong uwtable
define hidden i32 @netlogon_dissect_CLAIMS_SET_METADATA_BLOB(ptr noundef %0, i32 noundef %1, i32 noundef %2, ptr noundef %3, ptr noundef %4, i32 noundef %5, i32 noundef %6, ptr noundef %7) #0 {
  %9 = alloca i32, align 4
  %10 = alloca ptr, align 8
  %11 = alloca i32, align 4
  %12 = alloca i32, align 4
  %13 = alloca ptr, align 8
  %14 = alloca ptr, align 8
  %15 = alloca i32, align 4
  %16 = alloca i32, align 4
  %17 = alloca ptr, align 8
  %18 = alloca ptr, align 8
  %19 = alloca ptr, align 8
  %20 = alloca [4 x i8], align 1
  %21 = alloca %struct._dcerpc_call_value, align 8
  %22 = alloca %struct._dcerpc_info, align 8
  %23 = alloca i32, align 4
  store ptr %0, ptr %10, align 8
  store i32 %1, ptr %11, align 4
  store i32 %2, ptr %12, align 4
  store ptr %3, ptr %13, align 8
  store ptr %4, ptr %14, align 8
  store i32 %5, ptr %15, align 4
  store i32 %6, ptr %16, align 4
  store ptr %7, ptr %17, align 8
  call void @llvm.lifetime.start.p0(i64 8, ptr %18) #15
  call void @llvm.lifetime.start.p0(i64 8, ptr %19) #15
  call void @llvm.lifetime.start.p0(i64 4, ptr %20) #15
  call void @llvm.memcpy.p0.p0.i64(ptr align 1 %20, ptr align 1 @__const.netlogon_dissect_CLAIMS_SET_METADATA_BLOB.drep, i64 4, i1 false)
  call void @llvm.lifetime.start.p0(i64 104, ptr %21) #15
  call void @llvm.memset.p0.i64(ptr align 8 %21, i8 0, i64 104, i1 false)
  call void @llvm.lifetime.start.p0(i64 136, ptr %22) #15
  call void @llvm.memset.p0.i64(ptr align 8 %22, i8 0, i64 136, i1 false)
  %24 = getelementptr inbounds nuw %struct._dcerpc_info, ptr %22, i32 0, i32 3
  store i8 -1, ptr %24, align 8
  %25 = getelementptr inbounds nuw %struct._dcerpc_info, ptr %22, i32 0, i32 14
  store ptr %21, ptr %25, align 8
  %26 = load ptr, ptr %14, align 8
  %27 = load i32, ptr %15, align 4
  %28 = load ptr, ptr %10, align 8
  %29 = load i32, ptr %11, align 4
  %30 = load i32, ptr %12, align 4
  %31 = call ptr @proto_tree_add_item(ptr noundef %26, i32 noundef %27, ptr noundef %28, i32 noundef %29, i32 noundef %30, i32 noundef 0)
  store ptr %31, ptr %18, align 8
  %32 = load ptr, ptr %18, align 8
  %33 = load i32, ptr %16, align 4
  %34 = call ptr @proto_item_add_subtree(ptr noundef %32, i32 noundef %33)
  store ptr %34, ptr %19, align 8
  %35 = load i32, ptr %12, align 4
  %36 = icmp eq i32 %35, 0
  br i1 %36, label %37, label %45

37:                                               ; preds = %8
  %38 = load ptr, ptr %19, align 8
  %39 = load i32, ptr @hf_netlogon_blob, align 4
  %40 = load ptr, ptr %10, align 8
  %41 = load i32, ptr %11, align 4
  %42 = load i32, ptr %12, align 4
  %43 = call ptr @proto_tree_add_item(ptr noundef %38, i32 noundef %39, ptr noundef %40, i32 noundef %41, i32 noundef %42, i32 noundef 0)
  %44 = load i32, ptr %11, align 4
  store i32 %44, ptr %9, align 4
  store i32 1, ptr %23, align 4
  br label %59

45:                                               ; preds = %8
  %46 = load ptr, ptr %19, align 8
  %47 = load ptr, ptr %10, align 8
  %48 = load i32, ptr %11, align 4
  %49 = getelementptr [4 x i8], ptr %20, i64 0, i64 0
  %50 = call i32 @nt_dissect_MIDL_NDRHEADERBLOB(ptr noundef %46, ptr noundef %47, i32 noundef %48, ptr noundef %49)
  store i32 %50, ptr %11, align 4
  call void @init_ndr_pointer_list(ptr noundef %22)
  %51 = load ptr, ptr %10, align 8
  %52 = load i32, ptr %11, align 4
  %53 = load ptr, ptr %13, align 8
  %54 = load ptr, ptr %19, align 8
  %55 = getelementptr inbounds [4 x i8], ptr %20, i64 0, i64 0
  %56 = load ptr, ptr %17, align 8
  %57 = call i32 @dissect_ndr_pointer(ptr noundef %51, i32 noundef %52, ptr noundef %53, ptr noundef %54, ptr noundef %22, ptr noundef %55, ptr noundef @netlogon_dissect_CLAIMS_SET_METADATA, i32 noundef 2, ptr noundef %56, i32 noundef -1)
  store i32 %57, ptr %11, align 4
  call void @free_ndr_pointer_list(ptr noundef %22)
  %58 = load i32, ptr %11, align 4
  store i32 %58, ptr %9, align 4
  store i32 1, ptr %23, align 4
  br label %59

59:                                               ; preds = %45, %37
  call void @llvm.lifetime.end.p0(i64 136, ptr %22) #15
  call void @llvm.lifetime.end.p0(i64 104, ptr %21) #15
  call void @llvm.lifetime.end.p0(i64 4, ptr %20) #15
  call void @llvm.lifetime.end.p0(i64 8, ptr %19) #15
  call void @llvm.lifetime.end.p0(i64 8, ptr %18) #15
  %60 = load i32, ptr %9, align 4
  ret i32 %60
}