; Function Attrs: null_pointer_is_valid sspstrong uwtable
define hidden i32 @netlogon_dissect_CLAIMS_SET_METADATA_BLOB(ptr noundef %0, i32 noundef %1, i32 noundef %2, ptr noundef %3, ptr noundef %4, i32 noundef %5, i32 noundef %6, ptr noundef %7) local_unnamed_addr #0 {
  %9 = alloca [4 x i8], align 4
  %10 = alloca %struct._dcerpc_call_value, align 8
  %11 = alloca %struct._dcerpc_info, align 8
  call void @llvm.lifetime.start.p0(i64 4, ptr nonnull %9) #15
  store i32 16, ptr %9, align 4
  call void @llvm.lifetime.start.p0(i64 104, ptr nonnull %10) #15
  call void @llvm.memset.p0.i64(ptr noundef nonnull align 8 dereferenceable(104) %10, i8 0, i64 104, i1 false)
  call void @llvm.lifetime.start.p0(i64 136, ptr nonnull %11) #15
  call void @llvm.memset.p0.i64(ptr noundef nonnull align 8 dereferenceable(136) %11, i8 0, i64 136, i1 false)
  %12 = getelementptr inbounds nuw i8, ptr %11, i64 24
  store i8 -1, ptr %12, align 8
  %13 = getelementptr inbounds nuw i8, ptr %11, i64 64
  store ptr %10, ptr %13, align 8
  %14 = call ptr @proto_tree_add_item(ptr noundef %4, i32 noundef %5, ptr noundef %0, i32 noundef %1, i32 noundef %2, i32 noundef 0)
  %15 = call ptr @proto_item_add_subtree(ptr noundef %14, i32 noundef %6)
  %16 = icmp eq i32 %2, 0
  br i1 %16, label %17, label %20

17:                                               ; preds = %8
  %18 = load i32, ptr @hf_netlogon_blob, align 4
  %19 = call ptr @proto_tree_add_item(ptr noundef %15, i32 noundef %18, ptr noundef %0, i32 noundef %1, i32 noundef 0, i32 noundef 0)
  br label %23

20:                                               ; preds = %8
  %21 = call i32 @nt_dissect_MIDL_NDRHEADERBLOB(ptr noundef %15, ptr noundef %0, i32 noundef %1, ptr noundef nonnull %9)
  call void @init_ndr_pointer_list(ptr noundef nonnull %11)
  %22 = call i32 @dissect_ndr_pointer(ptr noundef %0, i32 noundef %21, ptr noundef %3, ptr noundef %15, ptr noundef nonnull %11, ptr noundef nonnull %9, ptr noundef nonnull @netlogon_dissect_CLAIMS_SET_METADATA, i32 noundef 2, ptr noundef %7, i32 noundef -1)
  call void @free_ndr_pointer_list(ptr noundef nonnull %11)
  br label %23

23:                                               ; preds = %20, %17
  %.0 = phi i32 [ %1, %17 ], [ %22, %20 ]
  call void @llvm.lifetime.end.p0(i64 136, ptr nonnull %11) #15
  call void @llvm.lifetime.end.p0(i64 104, ptr nonnull %10) #15
  call void @llvm.lifetime.end.p0(i64 4, ptr nonnull %9) #15
  ret i32 %.0
}